target datalayout = "e-m:e-p270:32:32-p271:32:32-p272:64:64-i64:64-i128:128-f80:128-n8:16:32:64-S128"
target triple = "x86_64-pc-linux-gnu"

%struct.v4l2_format = type { i32, %union.anon.0 }
%union.anon.0 = type { %struct.v4l2_window, [144 x i8] }
%struct.v4l2_window = type { %struct.v4l2_rect, i32, i32, ptr, i32, ptr, i8 }
%struct.v4l2_rect = type { i32, i32, i32, i32 }
%struct.AVFormatContext = type { ptr, ptr, ptr, ptr, ptr, i32, i32, ptr, i32, ptr, i32, ptr, ptr, i64, i64, i64, i32, i32, i32, i64, i64, ptr, i32, i32, ptr, i32, i32, i32, i32, ptr, i64, i32, i32, %struct.AVIOInterruptCB, i32, i32, i32, i32, i64, i32, i32, i32, i32, i32, i32, i32, i32, i32, i32, i32, i32, i64, i32, i32, i32, i32, i32, ptr, ptr, ptr, ptr, i32, ptr, ptr, ptr, ptr, i32, ptr, ptr, i64, ptr, ptr, ptr, i64 }
%struct.AVIOInterruptCB = type { ptr, ptr }
%struct.video_data = type { ptr, i32, i32, i32, i32, i32, i32, i32, i32, ptr, i64, i32, i32, i32, i32, ptr, ptr, ptr, i64, i32, ptr, i32, i32, ptr, i32, ptr, ptr, ptr, ptr, ptr, ptr, ptr }
%struct.v4l2_pix_format = type { i32, i32, i32, i32, i32, i32, i32, i32, i32, %union.anon.1, i32, i32 }
%union.anon.1 = type { i32 }

@.str.70 = private unnamed_addr constant [55 x i8] c"The V4L2 driver changed the video from %dx%d to %dx%d\0A\00", align 1
@.str.71 = private unnamed_addr constant [64 x i8] c"The V4L2 driver changed the pixel format from 0x%08X to 0x%08X\0A\00", align 1
@.str.72 = private unnamed_addr constant [46 x i8] c"The V4L2 driver is using the interlaced mode\0A\00", align 1

; Function Attrs: nounwind uwtable
define internal i32 @device_init(ptr noundef %0, ptr noundef %1, ptr noundef %2, i32 noundef %3) #0 {
  %5 = alloca ptr, align 8
  %6 = alloca ptr, align 8
  %7 = alloca ptr, align 8
  %8 = alloca i32, align 4
  %9 = alloca ptr, align 8
  %10 = alloca %struct.v4l2_format, align 8
  %11 = alloca i32, align 4
  store ptr %0, ptr %5, align 8, !tbaa !13
  store ptr %1, ptr %6, align 8, !tbaa !125
  store ptr %2, ptr %7, align 8, !tbaa !125
  store i32 %3, ptr %8, align 4, !tbaa !32
  call void @llvm.lifetime.start.p0(i64 8, ptr %9) #10
  %12 = load ptr, ptr %5, align 8, !tbaa !13
  %13 = getelementptr inbounds nuw %struct.AVFormatContext, ptr %12, i32 0, i32 3
  %14 = load ptr, ptr %13, align 8, !tbaa !15
  store ptr %14, ptr %9, align 8, !tbaa !30
  call void @llvm.lifetime.start.p0(i64 208, ptr %10) #10
  call void @llvm.memset.p0.i64(ptr align 8 %10, i8 0, i64 208, i1 false)
  %15 = getelementptr inbounds nuw %struct.v4l2_format, ptr %10, i32 0, i32 0
  %16 = load ptr, ptr %9, align 8, !tbaa !30
  %17 = getelementptr inbounds nuw %struct.video_data, ptr %16, i32 0, i32 12
  %18 = load i32, ptr %17, align 4, !tbaa !59
  store i32 %18, ptr %15, align 8, !tbaa !60
  call void @llvm.lifetime.start.p0(i64 4, ptr %11) #10
  store i32 0, ptr %11, align 4, !tbaa !32
  %19 = load ptr, ptr %6, align 8, !tbaa !125
  %20 = load i32, ptr %19, align 4, !tbaa !32
  %21 = getelementptr inbounds nuw %struct.v4l2_format, ptr %10, i32 0, i32 1
  %22 = getelementptr inbounds nuw %struct.v4l2_pix_format, ptr %21, i32 0, i32 0
  store i32 %20, ptr %22, align 8, !tbaa !62
  %23 = load ptr, ptr %7, align 8, !tbaa !125
  %24 = load i32, ptr %23, align 4, !tbaa !32
  %25 = getelementptr inbounds nuw %struct.v4l2_format, ptr %10, i32 0, i32 1
  %26 = getelementptr inbounds nuw %struct.v4l2_pix_format, ptr %25, i32 0, i32 1
  store i32 %24, ptr %26, align 4, !tbaa !62
  %27 = load i32, ptr %8, align 4, !tbaa !32
  %28 = getelementptr inbounds nuw %struct.v4l2_format, ptr %10, i32 0, i32 1
  %29 = getelementptr inbounds nuw %struct.v4l2_pix_format, ptr %28, i32 0, i32 2
  store i32 %27, ptr %29, align 8, !tbaa !62
  %30 = getelementptr inbounds nuw %struct.v4l2_format, ptr %10, i32 0, i32 1
  %31 = getelementptr inbounds nuw %struct.v4l2_pix_format, ptr %30, i32 0, i32 3
  store i32 0, ptr %31, align 4, !tbaa !62
  %32 = load ptr, ptr %9, align 8, !tbaa !30
  %33 = getelementptr inbounds nuw %struct.video_data, ptr %32, i32 0, i32 28
  %34 = load ptr, ptr %33, align 8, !tbaa !42
  %35 = load ptr, ptr %9, align 8, !tbaa !30
  %36 = getelementptr inbounds nuw %struct.video_data, ptr %35, i32 0, i32 1
  %37 = load i32, ptr %36, align 8, !tbaa !36
  %38 = call i32 (i32, i64, ...) %34(i32 noundef %37, i64 noundef 3234878981, ptr noundef %10)
  %39 = icmp slt i32 %38, 0
  br i1 %39, label %40, label %44

40:                                               ; preds = %4
  %41 = call ptr @__errno_location() #11
  %42 = load i32, ptr %41, align 4, !tbaa !32
  %43 = sub nsw i32 0, %42
  store i32 %43, ptr %11, align 4, !tbaa !32
  br label %44

44:                                               ; preds = %40, %4
  %45 = load ptr, ptr %6, align 8, !tbaa !125
  %46 = load i32, ptr %45, align 4, !tbaa !32
  %47 = getelementptr inbounds nuw %struct.v4l2_format, ptr %10, i32 0, i32 1
  %48 = getelementptr inbounds nuw %struct.v4l2_pix_format, ptr %47, i32 0, i32 0
  %49 = load i32, ptr %48, align 8, !tbaa !62
  %50 = icmp ne i32 %46, %49
  br i1 %50, label %58, label %51

51:                                               ; preds = %44
  %52 = load ptr, ptr %7, align 8, !tbaa !125
  %53 = load i32, ptr %52, align 4, !tbaa !32
  %54 = getelementptr inbounds nuw %struct.v4l2_format, ptr %10, i32 0, i32 1
  %55 = getelementptr inbounds nuw %struct.v4l2_pix_format, ptr %54, i32 0, i32 1
  %56 = load i32, ptr %55, align 4, !tbaa !62
  %57 = icmp ne i32 %53, %56
  br i1 %57, label %58, label %78

58:                                               ; preds = %51, %44
  %59 = load ptr, ptr %5, align 8, !tbaa !13
  %60 = load ptr, ptr %6, align 8, !tbaa !125
  %61 = load i32, ptr %60, align 4, !tbaa !32
  %62 = load ptr, ptr %7, align 8, !tbaa !125
  %63 = load i32, ptr %62, align 4, !tbaa !32
  %64 = getelementptr inbounds nuw %struct.v4l2_format, ptr %10, i32 0, i32 1
  %65 = getelementptr inbounds nuw %struct.v4l2_pix_format, ptr %64, i32 0, i32 0
  %66 = load i32, ptr %65, align 8, !tbaa !62
  %67 = getelementptr inbounds nuw %struct.v4l2_format, ptr %10, i32 0, i32 1
  %68 = getelementptr inbounds nuw %struct.v4l2_pix_format, ptr %67, i32 0, i32 1
  %69 = load i32, ptr %68, align 4, !tbaa !62
  call void (ptr, i32, ptr, ...) @av_log(ptr noundef %59, i32 noundef 32, ptr noundef @.str.70, i32 noundef %61, i32 noundef %63, i32 noundef %66, i32 noundef %69)
  %70 = getelementptr inbounds nuw %struct.v4l2_format, ptr %10, i32 0, i32 1
  %71 = getelementptr inbounds nuw %struct.v4l2_pix_format, ptr %70, i32 0, i32 0
  %72 = load i32, ptr %71, align 8, !tbaa !62
  %73 = load ptr, ptr %6, align 8, !tbaa !125
  store i32 %72, ptr %73, align 4, !tbaa !32
  %74 = getelementptr inbounds nuw %struct.v4l2_format, ptr %10, i32 0, i32 1
  %75 = getelementptr inbounds nuw %struct.v4l2_pix_format, ptr %74, i32 0, i32 1
  %76 = load i32, ptr %75, align 4, !tbaa !62
  %77 = load ptr, ptr %7, align 8, !tbaa !125
  store i32 %76, ptr %77, align 4, !tbaa !32
  br label %78

78:                                               ; preds = %58, %51
  %79 = load i32, ptr %8, align 4, !tbaa !32
  %80 = getelementptr inbounds nuw %struct.v4l2_format, ptr %10, i32 0, i32 1
  %81 = getelementptr inbounds nuw %struct.v4l2_pix_format, ptr %80, i32 0, i32 2
  %82 = load i32, ptr %81, align 8, !tbaa !62
  %83 = icmp ne i32 %79, %82
  br i1 %83, label %84, label %90

84:                                               ; preds = %78
  %85 = load ptr, ptr %5, align 8, !tbaa !13
  %86 = load i32, ptr %8, align 4, !tbaa !32
  %87 = getelementptr inbounds nuw %struct.v4l2_format, ptr %10, i32 0, i32 1
  %88 = getelementptr inbounds nuw %struct.v4l2_pix_format, ptr %87, i32 0, i32 2
  %89 = load i32, ptr %88, align 8, !tbaa !62
  call void (ptr, i32, ptr, ...) @av_log(ptr noundef %85, i32 noundef 48, ptr noundef @.str.71, i32 noundef %86, i32 noundef %89)
  store i32 -22, ptr %11, align 4, !tbaa !32
  br label %90

90:                                               ; preds = %84, %78
  %91 = getelementptr inbounds nuw %struct.v4l2_format, ptr %10, i32 0, i32 1
  %92 = getelementptr inbounds nuw %struct.v4l2_pix_format, ptr %91, i32 0, i32 3
  %93 = load i32, ptr %92, align 4, !tbaa !62
  %94 = icmp eq i32 %93, 4
  br i1 %94, label %95, label %99

95:                                               ; preds = %90
  %96 = load ptr, ptr %5, align 8, !tbaa !13
  call void (ptr, i32, ptr, ...) @av_log(ptr noundef %96, i32 noundef 48, ptr noundef @.str.72)
  %97 = load ptr, ptr %9, align 8, !tbaa !30
  %98 = getelementptr inbounds nuw %struct.video_data, ptr %97, i32 0, i32 6
  store i32 1, ptr %98, align 4, !tbaa !175
  br label %99

99:                                               ; preds = %95, %90
  %100 = load i32, ptr %11, align 4, !tbaa !32
  call void @llvm.lifetime.end.p0(i64 4, ptr %11) #10
  call void @llvm.lifetime.end.p0(i64 208, ptr %10) #10
  call void @llvm.lifetime.end.p0(i64 8, ptr %9) #10
  ret i32 %100
}