; Function Attrs: nounwind uwtable
define internal fastcc range(i32 -2147483647, -2147483648) i32 @device_init(ptr noundef %0, ptr noundef captures(none) %1, ptr noundef captures(none) %2, i32 noundef %3) unnamed_addr #0 {
  %5 = alloca %struct.v4l2_format, align 8
  %6 = getelementptr inbounds nuw i8, ptr %0, i64 24
  %7 = load ptr, ptr %6, align 8, !tbaa !11
  call void @llvm.lifetime.start.p0(i64 208, ptr nonnull %5) #11
  call void @llvm.memset.p0.i64(ptr noundef nonnull align 8 dereferenceable(208) %5, i8 0, i64 208, i1 false)
  %8 = getelementptr inbounds nuw i8, ptr %7, i64 60
  %9 = load i32, ptr %8, align 4, !tbaa !40
  store i32 %9, ptr %5, align 8, !tbaa !68
  %10 = load i32, ptr %1, align 4, !tbaa !26
  %11 = getelementptr inbounds nuw i8, ptr %5, i64 8
  store i32 %10, ptr %11, align 8, !tbaa !55
  %12 = load i32, ptr %2, align 4, !tbaa !26
  %13 = getelementptr inbounds nuw i8, ptr %5, i64 12
  store i32 %12, ptr %13, align 4, !tbaa !55
  %14 = getelementptr inbounds nuw i8, ptr %5, i64 16
  store i32 %3, ptr %14, align 8, !tbaa !55
  %15 = getelementptr inbounds nuw i8, ptr %5, i64 20
  %16 = getelementptr inbounds nuw i8, ptr %7, i64 168
  %17 = load ptr, ptr %16, align 8, !tbaa !34
  %18 = getelementptr inbounds nuw i8, ptr %7, i64 8
  %19 = load i32, ptr %18, align 8, !tbaa !28
  %20 = call i32 (i32, i64, ...) %17(i32 noundef %19, i64 noundef 3234878981, ptr noundef nonnull %5) #11
  %21 = icmp slt i32 %20, 0
  br i1 %21, label %22, label %26

22:                                               ; preds = %4
  %23 = tail call ptr @__errno_location() #12
  %24 = load i32, ptr %23, align 4, !tbaa !26
  %25 = sub nsw i32 0, %24
  br label %26

26:                                               ; preds = %22, %4
  %.0 = phi i32 [ %25, %22 ], [ 0, %4 ]
  %27 = load i32, ptr %1, align 4, !tbaa !26
  %28 = load i32, ptr %11, align 8, !tbaa !55
  %.not = icmp eq i32 %27, %28
  %.pre = load i32, ptr %2, align 4, !tbaa !26
  %.pre23 = load i32, ptr %13, align 4, !tbaa !55
  %.not21 = icmp eq i32 %.pre, %.pre23
  %or.cond = select i1 %.not, i1 %.not21, i1 false
  br i1 %or.cond, label %32, label %29

29:                                               ; preds = %26
  call void (ptr, i32, ptr, ...) @av_log(ptr noundef nonnull %0, i32 noundef 32, ptr noundef nonnull @.str.70, i32 noundef %27, i32 noundef %.pre, i32 noundef %28, i32 noundef %.pre23) #11
  %30 = load i32, ptr %11, align 8, !tbaa !55
  store i32 %30, ptr %1, align 4, !tbaa !26
  %31 = load i32, ptr %13, align 4, !tbaa !55
  store i32 %31, ptr %2, align 4, !tbaa !26
  br label %32

32:                                               ; preds = %26, %29
  %33 = load i32, ptr %14, align 8, !tbaa !55
  %.not22 = icmp eq i32 %3, %33
  br i1 %.not22, label %35, label %34

34:                                               ; preds = %32
  call void (ptr, i32, ptr, ...) @av_log(ptr noundef nonnull %0, i32 noundef 48, ptr noundef nonnull @.str.71, i32 noundef %3, i32 noundef %33) #11
  br label %35

35:                                               ; preds = %34, %32
  %.1 = phi i32 [ -22, %34 ], [ %.0, %32 ]
  %36 = load i32, ptr %15, align 4, !tbaa !55
  %37 = icmp eq i32 %36, 4
  br i1 %37, label %38, label %40

38:                                               ; preds = %35
  call void (ptr, i32, ptr, ...) @av_log(ptr noundef nonnull %0, i32 noundef 48, ptr noundef nonnull @.str.72) #11
  %39 = getelementptr inbounds nuw i8, ptr %7, i64 28
  store i32 1, ptr %39, align 4, !tbaa !162
  br label %40

40:                                               ; preds = %38, %35
  call void @llvm.lifetime.end.p0(i64 208, ptr nonnull %5) #11
  ret i32 %.1
}